target datalayout = "e-m:e-p270:32:32-p271:32:32-p272:64:64-i64:64-i128:128-f80:128-n8:16:32:64-S128"
target triple = "x86_64-pc-linux-gnu"

%struct.VLCElem = type { %union.anon.3 }
%union.anon.3 = type { %struct.anon.4 }
%struct.anon.4 = type { i16, i16 }
%struct.MpegEncContext = type { ptr, i32, i32, i32, [12 x i32], i32, %struct.ScanTable, %struct.ScanTable, [64 x i8], [64 x i8], ptr, ptr, i32, i32, i32, i32, i32, i32, i32, i32, i32, i32, i32, i32, i32, i32, i32, i32, i32, i32, i32, i32, i64, i64, ptr, %struct.BufferPoolContext, i32, i32, %union.anon.1, i32, %struct.MPVWorkPicture, %struct.MPVWorkPicture, %struct.MPVWorkPicture, i32, [3 x i32], ptr, [3 x ptr], ptr, ptr, ptr, ptr, ptr, ptr, [3 x ptr], i32, ptr, ptr, ptr, ptr, %struct.ScratchpadContext, i32, i32, i32, i32, i32, i32, %struct.BlockDSPContext, %struct.H264ChromaContext, %struct.HpelDSPContext, %struct.IDCTDSPContext, %struct.QpelDSPContext, %struct.VideoDSPContext, %struct.H263DSPContext, ptr, [2 x [2 x ptr]], i32, i32, [2 x [4 x [2 x i32]]], [2 x [2 x i32]], [2 x [2 x [2 x i32]]], [2 x [64 x i16]], i32, i32, i32, i32, i32, [6 x i32], [6 x i32], [3 x ptr], ptr, [64 x i16], [64 x i16], [64 x i16], [64 x i16], i32, i32, %struct.GetBitContext, i32, i32, i32, i32, i32, i32, i32, i32, i32, i32, i32, i32, i32, i32, i32, i64, i64, i16, i16, i16, i16, i32, i32, i32, i32, i32, i32, i32, i32, i32, [3 x i32], i32, i32, i32, i32, i32, i32, %struct.GetBitContext, i32, [2 x [2 x i32]], i32, i32, i32, i32, i32, i32, i32, i32, i32, i32, i32, i32, i32, i32, [2 x i32], i32, i32, ptr, ptr, ptr, ptr, ptr, i32, i32, %struct.ERContext }
%struct.ScanTable = type { ptr, [64 x i8], [64 x i8] }
%struct.BufferPoolContext = type { ptr, ptr, ptr, ptr, ptr, i32, i32, i32 }
%union.anon.1 = type { [32 x ptr] }
%struct.MPVWorkPicture = type { [3 x ptr], [3 x i64], ptr, ptr, [2 x ptr], ptr, ptr, [2 x ptr], i32 }
%struct.ScratchpadContext = type { ptr, ptr, %union.anon.2, i32 }
%union.anon.2 = type { ptr }
%struct.BlockDSPContext = type { ptr, ptr, [2 x ptr] }
%struct.H264ChromaContext = type { [4 x ptr], [4 x ptr] }
%struct.HpelDSPContext = type { [4 x [4 x ptr]], [4 x [4 x ptr]], [4 x [4 x ptr]], [4 x ptr] }
%struct.IDCTDSPContext = type { ptr, ptr, ptr, ptr, ptr, ptr, [64 x i8], i32, i32 }
%struct.QpelDSPContext = type { [2 x [16 x ptr]], [2 x [16 x ptr]], [2 x [16 x ptr]] }
%struct.VideoDSPContext = type { ptr, ptr }
%struct.H263DSPContext = type { ptr, ptr }
%struct.GetBitContext = type { ptr, ptr, i32, i32, i32 }
%struct.ERContext = type { ptr, ptr, i32, ptr, i32, i32, i32, i64, i64, i32, i32, ptr, ptr, [3 x ptr], ptr, ptr, [2 x [4 x [2 x i32]]], %struct.ERPicture, %struct.ERPicture, %struct.ERPicture, [2 x ptr], [2 x ptr], i16, i16, i32, i32, ptr, ptr }
%struct.ERPicture = type { ptr, ptr, ptr, [2 x ptr], [2 x ptr], ptr, i32 }
%union.anon.6 = type { i32 }

@ff_mv_vlc = external global [0 x %struct.VLCElem], align 2

; Function Attrs: alwaysinline nounwind willreturn memory(none) uwtable
define internal i32 @av_bswap32(i32 noundef %0) #4 {
  %2 = alloca i32, align 4
  store i32 %0, ptr %2, align 4, !tbaa !59
  %3 = load i32, ptr %2, align 4, !tbaa !59
  %4 = shl i32 %3, 8
  %5 = and i32 %4, 65280
  %6 = load i32, ptr %2, align 4, !tbaa !59
  %7 = lshr i32 %6, 8
  %8 = and i32 %7, 255
  %9 = or i32 %5, %8
  %10 = shl i32 %9, 16
  %11 = load i32, ptr %2, align 4, !tbaa !59
  %12 = lshr i32 %11, 16
  %13 = shl i32 %12, 8
  %14 = and i32 %13, 65280
  %15 = load i32, ptr %2, align 4, !tbaa !59
  %16 = lshr i32 %15, 16
  %17 = lshr i32 %16, 8
  %18 = and i32 %17, 255
  %19 = or i32 %14, %18
  %20 = or i32 %10, %19
  ret i32 %20
}

; Function Attrs: inlinehint nounwind willreturn memory(none) uwtable
define internal i32 @sign_extend(i32 noundef %0, i32 noundef %1) #12 {
  %3 = alloca i32, align 4
  %4 = alloca i32, align 4
  %5 = alloca i32, align 4
  %6 = alloca %union.anon.6, align 4
  store i32 %0, ptr %3, align 4, !tbaa !59
  store i32 %1, ptr %4, align 4, !tbaa !59
  call void @llvm.lifetime.start.p0(i64 4, ptr %5) #13
  %7 = load i32, ptr %4, align 4, !tbaa !59
  %8 = zext i32 %7 to i64
  %9 = sub i64 32, %8
  %10 = trunc i64 %9 to i32
  store i32 %10, ptr %5, align 4, !tbaa !59
  call void @llvm.lifetime.start.p0(i64 4, ptr %6) #13
  %11 = load i32, ptr %3, align 4, !tbaa !59
  %12 = load i32, ptr %5, align 4, !tbaa !59
  %13 = shl i32 %11, %12
  store i32 %13, ptr %6, align 4, !tbaa !56
  %14 = load i32, ptr %6, align 4, !tbaa !56
  %15 = load i32, ptr %5, align 4, !tbaa !59
  %16 = ashr i32 %14, %15
  call void @llvm.lifetime.end.p0(i64 4, ptr %6) #13
  call void @llvm.lifetime.end.p0(i64 4, ptr %5) #13
  ret i32 %16
}

; Function Attrs: inlinehint nounwind uwtable
define internal i32 @get_bits(ptr noundef %0, i32 noundef %1) #6 {
  %3 = alloca ptr, align 8
  %4 = alloca i32, align 4
  %5 = alloca i32, align 4
  %6 = alloca i32, align 4
  %7 = alloca i32, align 4
  store ptr %0, ptr %3, align 8, !tbaa !99
  store i32 %1, ptr %4, align 4, !tbaa !59
  call void @llvm.lifetime.start.p0(i64 4, ptr %5) #13
  call void @llvm.lifetime.start.p0(i64 4, ptr %6) #13
  %8 = load ptr, ptr %3, align 8, !tbaa !99
  %9 = getelementptr inbounds nuw %struct.GetBitContext, ptr %8, i32 0, i32 2
  %10 = load i32, ptr %9, align 8, !tbaa !187
  store i32 %10, ptr %6, align 4, !tbaa !59
  call void @llvm.lifetime.start.p0(i64 4, ptr %7) #13
  %11 = load ptr, ptr %3, align 8, !tbaa !99
  %12 = getelementptr inbounds nuw %struct.GetBitContext, ptr %11, i32 0, i32 0
  %13 = load ptr, ptr %12, align 8, !tbaa !188
  %14 = load i32, ptr %6, align 4, !tbaa !59
  %15 = lshr i32 %14, 3
  %16 = zext i32 %15 to i64
  %17 = getelementptr inbounds nuw i8, ptr %13, i64 %16
  %18 = load i32, ptr %17, align 1, !tbaa !56
  %19 = call i32 @av_bswap32(i32 noundef %18) #14
  %20 = load i32, ptr %6, align 4, !tbaa !59
  %21 = and i32 %20, 7
  %22 = shl i32 %19, %21
  %23 = lshr i32 %22, 0
  store i32 %23, ptr %7, align 4, !tbaa !59
  %24 = load i32, ptr %7, align 4, !tbaa !59
  %25 = load i32, ptr %4, align 4, !tbaa !59
  %26 = sub nsw i32 32, %25
  %27 = lshr i32 %24, %26
  store i32 %27, ptr %5, align 4, !tbaa !59
  %28 = load i32, ptr %4, align 4, !tbaa !59
  %29 = load i32, ptr %6, align 4, !tbaa !59
  %30 = add i32 %29, %28
  store i32 %30, ptr %6, align 4, !tbaa !59
  %31 = load i32, ptr %6, align 4, !tbaa !59
  %32 = load ptr, ptr %3, align 8, !tbaa !99
  %33 = getelementptr inbounds nuw %struct.GetBitContext, ptr %32, i32 0, i32 2
  store i32 %31, ptr %33, align 8, !tbaa !187
  %34 = load i32, ptr %5, align 4, !tbaa !59
  call void @llvm.lifetime.end.p0(i64 4, ptr %7) #13
  call void @llvm.lifetime.end.p0(i64 4, ptr %6) #13
  call void @llvm.lifetime.end.p0(i64 4, ptr %5) #13
  ret i32 %34
}

; Function Attrs: inlinehint nounwind uwtable
define internal i32 @get_bits1(ptr noundef %0) #6 {
  %2 = alloca ptr, align 8
  %3 = alloca i32, align 4
  %4 = alloca i8, align 1
  store ptr %0, ptr %2, align 8, !tbaa !99
  call void @llvm.lifetime.start.p0(i64 4, ptr %3) #13
  %5 = load ptr, ptr %2, align 8, !tbaa !99
  %6 = getelementptr inbounds nuw %struct.GetBitContext, ptr %5, i32 0, i32 2
  %7 = load i32, ptr %6, align 8, !tbaa !187
  store i32 %7, ptr %3, align 4, !tbaa !59
  call void @llvm.lifetime.start.p0(i64 1, ptr %4) #13
  %8 = load ptr, ptr %2, align 8, !tbaa !99
  %9 = getelementptr inbounds nuw %struct.GetBitContext, ptr %8, i32 0, i32 0
  %10 = load ptr, ptr %9, align 8, !tbaa !188
  %11 = load i32, ptr %3, align 4, !tbaa !59
  %12 = lshr i32 %11, 3
  %13 = zext i32 %12 to i64
  %14 = getelementptr inbounds nuw i8, ptr %10, i64 %13
  %15 = load i8, ptr %14, align 1, !tbaa !56
  store i8 %15, ptr %4, align 1, !tbaa !56
  %16 = load i32, ptr %3, align 4, !tbaa !59
  %17 = and i32 %16, 7
  %18 = load i8, ptr %4, align 1, !tbaa !56
  %19 = zext i8 %18 to i32
  %20 = shl i32 %19, %17
  %21 = trunc i32 %20 to i8
  store i8 %21, ptr %4, align 1, !tbaa !56
  %22 = load i8, ptr %4, align 1, !tbaa !56
  %23 = zext i8 %22 to i32
  %24 = ashr i32 %23, 7
  %25 = trunc i32 %24 to i8
  store i8 %25, ptr %4, align 1, !tbaa !56
  %26 = load i32, ptr %3, align 4, !tbaa !59
  %27 = add i32 %26, 1
  store i32 %27, ptr %3, align 4, !tbaa !59
  %28 = load i32, ptr %3, align 4, !tbaa !59
  %29 = load ptr, ptr %2, align 8, !tbaa !99
  %30 = getelementptr inbounds nuw %struct.GetBitContext, ptr %29, i32 0, i32 2
  store i32 %28, ptr %30, align 8, !tbaa !187
  %31 = load i8, ptr %4, align 1, !tbaa !56
  %32 = zext i8 %31 to i32
  call void @llvm.lifetime.end.p0(i64 1, ptr %4) #13
  call void @llvm.lifetime.end.p0(i64 4, ptr %3) #13
  ret i32 %32
}

; Function Attrs: alwaysinline nounwind uwtable
define internal i32 @get_vlc2(ptr noundef %0, ptr noundef %1, i32 noundef %2, i32 noundef %3) #11 {
  %5 = alloca ptr, align 8
  %6 = alloca ptr, align 8
  %7 = alloca i32, align 4
  %8 = alloca i32, align 4
  %9 = alloca i32, align 4
  %10 = alloca i32, align 4
  %11 = alloca i32, align 4
  %12 = alloca i32, align 4
  %13 = alloca i32, align 4
  %14 = alloca i32, align 4
  store ptr %0, ptr %5, align 8, !tbaa !99
  store ptr %1, ptr %6, align 8, !tbaa !253
  store i32 %2, ptr %7, align 4, !tbaa !59
  store i32 %3, ptr %8, align 4, !tbaa !59
  call void @llvm.lifetime.start.p0(i64 4, ptr %9) #13
  call void @llvm.lifetime.start.p0(i64 4, ptr %10) #13
  %15 = load ptr, ptr %5, align 8, !tbaa !99
  %16 = getelementptr inbounds nuw %struct.GetBitContext, ptr %15, i32 0, i32 2
  %17 = load i32, ptr %16, align 8, !tbaa !187
  store i32 %17, ptr %10, align 4, !tbaa !59
  call void @llvm.lifetime.start.p0(i64 4, ptr %11) #13
  %18 = load ptr, ptr %5, align 8, !tbaa !99
  %19 = getelementptr inbounds nuw %struct.GetBitContext, ptr %18, i32 0, i32 0
  %20 = load ptr, ptr %19, align 8, !tbaa !188
  %21 = load i32, ptr %10, align 4, !tbaa !59
  %22 = lshr i32 %21, 3
  %23 = zext i32 %22 to i64
  %24 = getelementptr inbounds nuw i8, ptr %20, i64 %23
  %25 = load i32, ptr %24, align 1, !tbaa !56
  %26 = call i32 @av_bswap32(i32 noundef %25) #14
  %27 = load i32, ptr %10, align 4, !tbaa !59
  %28 = and i32 %27, 7
  %29 = shl i32 %26, %28
  %30 = lshr i32 %29, 0
  store i32 %30, ptr %11, align 4, !tbaa !59
  br label %31

31:                                               ; preds = %4
  call void @llvm.lifetime.start.p0(i64 4, ptr %12) #13
  call void @llvm.lifetime.start.p0(i64 4, ptr %13) #13
  call void @llvm.lifetime.start.p0(i64 4, ptr %14) #13
  %32 = load i32, ptr %11, align 4, !tbaa !59
  %33 = load i32, ptr %7, align 4, !tbaa !59
  %34 = sub nsw i32 32, %33
  %35 = lshr i32 %32, %34
  store i32 %35, ptr %14, align 4, !tbaa !59
  %36 = load ptr, ptr %6, align 8, !tbaa !253
  %37 = load i32, ptr %14, align 4, !tbaa !59
  %38 = zext i32 %37 to i64
  %39 = getelementptr inbounds nuw %struct.VLCElem, ptr %36, i64 %38
  %40 = getelementptr inbounds nuw %struct.VLCElem, ptr %39, i32 0, i32 0
  %41 = getelementptr inbounds nuw %struct.anon.4, ptr %40, i32 0, i32 0
  %42 = load i16, ptr %41, align 2, !tbaa !56
  %43 = sext i16 %42 to i32
  store i32 %43, ptr %9, align 4, !tbaa !59
  %44 = load ptr, ptr %6, align 8, !tbaa !253
  %45 = load i32, ptr %14, align 4, !tbaa !59
  %46 = zext i32 %45 to i64
  %47 = getelementptr inbounds nuw %struct.VLCElem, ptr %44, i64 %46
  %48 = getelementptr inbounds nuw %struct.VLCElem, ptr %47, i32 0, i32 0
  %49 = getelementptr inbounds nuw %struct.anon.4, ptr %48, i32 0, i32 1
  %50 = load i16, ptr %49, align 2, !tbaa !56
  %51 = sext i16 %50 to i32
  store i32 %51, ptr %12, align 4, !tbaa !59
  %52 = load i32, ptr %8, align 4, !tbaa !59
  %53 = icmp sgt i32 %52, 1
  br i1 %53, label %54, label %145

54:                                               ; preds = %31
  %55 = load i32, ptr %12, align 4, !tbaa !59
  %56 = icmp slt i32 %55, 0
  br i1 %56, label %57, label %145

57:                                               ; preds = %54
  %58 = load i32, ptr %7, align 4, !tbaa !59
  %59 = load i32, ptr %10, align 4, !tbaa !59
  %60 = add i32 %59, %58
  store i32 %60, ptr %10, align 4, !tbaa !59
  %61 = load ptr, ptr %5, align 8, !tbaa !99
  %62 = getelementptr inbounds nuw %struct.GetBitContext, ptr %61, i32 0, i32 0
  %63 = load ptr, ptr %62, align 8, !tbaa !188
  %64 = load i32, ptr %10, align 4, !tbaa !59
  %65 = lshr i32 %64, 3
  %66 = zext i32 %65 to i64
  %67 = getelementptr inbounds nuw i8, ptr %63, i64 %66
  %68 = load i32, ptr %67, align 1, !tbaa !56
  %69 = call i32 @av_bswap32(i32 noundef %68) #14
  %70 = load i32, ptr %10, align 4, !tbaa !59
  %71 = and i32 %70, 7
  %72 = shl i32 %69, %71
  %73 = lshr i32 %72, 0
  store i32 %73, ptr %11, align 4, !tbaa !59
  %74 = load i32, ptr %12, align 4, !tbaa !59
  %75 = sub nsw i32 0, %74
  store i32 %75, ptr %13, align 4, !tbaa !59
  %76 = load i32, ptr %11, align 4, !tbaa !59
  %77 = load i32, ptr %13, align 4, !tbaa !59
  %78 = sub nsw i32 32, %77
  %79 = lshr i32 %76, %78
  %80 = load i32, ptr %9, align 4, !tbaa !59
  %81 = add i32 %79, %80
  store i32 %81, ptr %14, align 4, !tbaa !59
  %82 = load ptr, ptr %6, align 8, !tbaa !253
  %83 = load i32, ptr %14, align 4, !tbaa !59
  %84 = zext i32 %83 to i64
  %85 = getelementptr inbounds nuw %struct.VLCElem, ptr %82, i64 %84
  %86 = getelementptr inbounds nuw %struct.VLCElem, ptr %85, i32 0, i32 0
  %87 = getelementptr inbounds nuw %struct.anon.4, ptr %86, i32 0, i32 0
  %88 = load i16, ptr %87, align 2, !tbaa !56
  %89 = sext i16 %88 to i32
  store i32 %89, ptr %9, align 4, !tbaa !59
  %90 = load ptr, ptr %6, align 8, !tbaa !253
  %91 = load i32, ptr %14, align 4, !tbaa !59
  %92 = zext i32 %91 to i64
  %93 = getelementptr inbounds nuw %struct.VLCElem, ptr %90, i64 %92
  %94 = getelementptr inbounds nuw %struct.VLCElem, ptr %93, i32 0, i32 0
  %95 = getelementptr inbounds nuw %struct.anon.4, ptr %94, i32 0, i32 1
  %96 = load i16, ptr %95, align 2, !tbaa !56
  %97 = sext i16 %96 to i32
  store i32 %97, ptr %12, align 4, !tbaa !59
  %98 = load i32, ptr %8, align 4, !tbaa !59
  %99 = icmp sgt i32 %98, 2
  br i1 %99, label %100, label %144

100:                                              ; preds = %57
  %101 = load i32, ptr %12, align 4, !tbaa !59
  %102 = icmp slt i32 %101, 0
  br i1 %102, label %103, label %144

103:                                              ; preds = %100
  %104 = load i32, ptr %13, align 4, !tbaa !59
  %105 = load i32, ptr %10, align 4, !tbaa !59
  %106 = add i32 %105, %104
  store i32 %106, ptr %10, align 4, !tbaa !59
  %107 = load ptr, ptr %5, align 8, !tbaa !99
  %108 = getelementptr inbounds nuw %struct.GetBitContext, ptr %107, i32 0, i32 0
  %109 = load ptr, ptr %108, align 8, !tbaa !188
  %110 = load i32, ptr %10, align 4, !tbaa !59
  %111 = lshr i32 %110, 3
  %112 = zext i32 %111 to i64
  %113 = getelementptr inbounds nuw i8, ptr %109, i64 %112
  %114 = load i32, ptr %113, align 1, !tbaa !56
  %115 = call i32 @av_bswap32(i32 noundef %114) #14
  %116 = load i32, ptr %10, align 4, !tbaa !59
  %117 = and i32 %116, 7
  %118 = shl i32 %115, %117
  %119 = lshr i32 %118, 0
  store i32 %119, ptr %11, align 4, !tbaa !59
  %120 = load i32, ptr %12, align 4, !tbaa !59
  %121 = sub nsw i32 0, %120
  store i32 %121, ptr %13, align 4, !tbaa !59
  %122 = load i32, ptr %11, align 4, !tbaa !59
  %123 = load i32, ptr %13, align 4, !tbaa !59
  %124 = sub nsw i32 32, %123
  %125 = lshr i32 %122, %124
  %126 = load i32, ptr %9, align 4, !tbaa !59
  %127 = add i32 %125, %126
  store i32 %127, ptr %14, align 4, !tbaa !59
  %128 = load ptr, ptr %6, align 8, !tbaa !253
  %129 = load i32, ptr %14, align 4, !tbaa !59
  %130 = zext i32 %129 to i64
  %131 = getelementptr inbounds nuw %struct.VLCElem, ptr %128, i64 %130
  %132 = getelementptr inbounds nuw %struct.VLCElem, ptr %131, i32 0, i32 0
  %133 = getelementptr inbounds nuw %struct.anon.4, ptr %132, i32 0, i32 0
  %134 = load i16, ptr %133, align 2, !tbaa !56
  %135 = sext i16 %134 to i32
  store i32 %135, ptr %9, align 4, !tbaa !59
  %136 = load ptr, ptr %6, align 8, !tbaa !253
  %137 = load i32, ptr %14, align 4, !tbaa !59
  %138 = zext i32 %137 to i64
  %139 = getelementptr inbounds nuw %struct.VLCElem, ptr %136, i64 %138
  %140 = getelementptr inbounds nuw %struct.VLCElem, ptr %139, i32 0, i32 0
  %141 = getelementptr inbounds nuw %struct.anon.4, ptr %140, i32 0, i32 1
  %142 = load i16, ptr %141, align 2, !tbaa !56
  %143 = sext i16 %142 to i32
  store i32 %143, ptr %12, align 4, !tbaa !59
  br label %144

144:                                              ; preds = %103, %100, %57
  br label %145

145:                                              ; preds = %144, %54, %31
  br label %146

146:                                              ; preds = %145
  %147 = load i32, ptr %12, align 4, !tbaa !59
  %148 = load i32, ptr %11, align 4, !tbaa !59
  %149 = shl i32 %148, %147
  store i32 %149, ptr %11, align 4, !tbaa !59
  %150 = load i32, ptr %12, align 4, !tbaa !59
  %151 = load i32, ptr %10, align 4, !tbaa !59
  %152 = add i32 %151, %150
  store i32 %152, ptr %10, align 4, !tbaa !59
  br label %153

153:                                              ; preds = %146
  br label %154

154:                                              ; preds = %153
  call void @llvm.lifetime.end.p0(i64 4, ptr %14) #13
  call void @llvm.lifetime.end.p0(i64 4, ptr %13) #13
  call void @llvm.lifetime.end.p0(i64 4, ptr %12) #13
  br label %155

155:                                              ; preds = %154
  br label %156

156:                                              ; preds = %155
  %157 = load i32, ptr %10, align 4, !tbaa !59
  %158 = load ptr, ptr %5, align 8, !tbaa !99
  %159 = getelementptr inbounds nuw %struct.GetBitContext, ptr %158, i32 0, i32 2
  store i32 %157, ptr %159, align 8, !tbaa !187
  %160 = load i32, ptr %9, align 4, !tbaa !59
  call void @llvm.lifetime.end.p0(i64 4, ptr %11) #13
  call void @llvm.lifetime.end.p0(i64 4, ptr %10) #13
  call void @llvm.lifetime.end.p0(i64 4, ptr %9) #13
  ret i32 %160
}

; Function Attrs: nounwind uwtable
define internal i32 @mpeg_decode_motion(ptr noundef %0, i32 noundef %1, i32 noundef %2) #1 {
  %4 = alloca i32, align 4
  %5 = alloca ptr, align 8
  %6 = alloca i32, align 4
  %7 = alloca i32, align 4
  %8 = alloca i32, align 4
  %9 = alloca i32, align 4
  %10 = alloca i32, align 4
  %11 = alloca i32, align 4
  %12 = alloca i32, align 4
  store ptr %0, ptr %5, align 8, !tbaa !31
  store i32 %1, ptr %6, align 4, !tbaa !59
  store i32 %2, ptr %7, align 4, !tbaa !59
  call void @llvm.lifetime.start.p0(i64 4, ptr %8) #13
  call void @llvm.lifetime.start.p0(i64 4, ptr %9) #13
  call void @llvm.lifetime.start.p0(i64 4, ptr %10) #13
  call void @llvm.lifetime.start.p0(i64 4, ptr %11) #13
  %13 = load ptr, ptr %5, align 8, !tbaa !31
  %14 = getelementptr inbounds nuw %struct.MpegEncContext, ptr %13, i32 0, i32 134
  %15 = call i32 @get_vlc2(ptr noundef %14, ptr noundef @ff_mv_vlc, i32 noundef 8, i32 noundef 2)
  store i32 %15, ptr %8, align 4, !tbaa !59
  %16 = load i32, ptr %8, align 4, !tbaa !59
  %17 = icmp eq i32 %16, 0
  br i1 %17, label %18, label %20

18:                                               ; preds = %3
  %19 = load i32, ptr %7, align 4, !tbaa !59
  store i32 %19, ptr %4, align 4
  store i32 1, ptr %12, align 4
  br label %60

20:                                               ; preds = %3
  %21 = load i32, ptr %8, align 4, !tbaa !59
  %22 = icmp slt i32 %21, 0
  br i1 %22, label %23, label %24

23:                                               ; preds = %20
  store i32 65535, ptr %4, align 4
  store i32 1, ptr %12, align 4
  br label %60

24:                                               ; preds = %20
  %25 = load ptr, ptr %5, align 8, !tbaa !31
  %26 = getelementptr inbounds nuw %struct.MpegEncContext, ptr %25, i32 0, i32 134
  %27 = call i32 @get_bits1(ptr noundef %26)
  store i32 %27, ptr %9, align 4, !tbaa !59
  %28 = load i32, ptr %6, align 4, !tbaa !59
  %29 = sub nsw i32 %28, 1
  store i32 %29, ptr %11, align 4, !tbaa !59
  %30 = load i32, ptr %8, align 4, !tbaa !59
  store i32 %30, ptr %10, align 4, !tbaa !59
  %31 = load i32, ptr %11, align 4, !tbaa !59
  %32 = icmp ne i32 %31, 0
  br i1 %32, label %33, label %46

33:                                               ; preds = %24
  %34 = load i32, ptr %10, align 4, !tbaa !59
  %35 = sub nsw i32 %34, 1
  %36 = load i32, ptr %11, align 4, !tbaa !59
  %37 = shl i32 %35, %36
  store i32 %37, ptr %10, align 4, !tbaa !59
  %38 = load ptr, ptr %5, align 8, !tbaa !31
  %39 = getelementptr inbounds nuw %struct.MpegEncContext, ptr %38, i32 0, i32 134
  %40 = load i32, ptr %11, align 4, !tbaa !59
  %41 = call i32 @get_bits(ptr noundef %39, i32 noundef %40)
  %42 = load i32, ptr %10, align 4, !tbaa !59
  %43 = or i32 %42, %41
  store i32 %43, ptr %10, align 4, !tbaa !59
  %44 = load i32, ptr %10, align 4, !tbaa !59
  %45 = add nsw i32 %44, 1
  store i32 %45, ptr %10, align 4, !tbaa !59
  br label %46

46:                                               ; preds = %33, %24
  %47 = load i32, ptr %9, align 4, !tbaa !59
  %48 = icmp ne i32 %47, 0
  br i1 %48, label %49, label %52

49:                                               ; preds = %46
  %50 = load i32, ptr %10, align 4, !tbaa !59
  %51 = sub nsw i32 0, %50
  store i32 %51, ptr %10, align 4, !tbaa !59
  br label %52

52:                                               ; preds = %49, %46
  %53 = load i32, ptr %7, align 4, !tbaa !59
  %54 = load i32, ptr %10, align 4, !tbaa !59
  %55 = add nsw i32 %54, %53
  store i32 %55, ptr %10, align 4, !tbaa !59
  %56 = load i32, ptr %10, align 4, !tbaa !59
  %57 = load i32, ptr %11, align 4, !tbaa !59
  %58 = add nsw i32 5, %57
  %59 = call i32 @sign_extend(i32 noundef %56, i32 noundef %58) #14
  store i32 %59, ptr %4, align 4
  store i32 1, ptr %12, align 4
  br label %60

60:                                               ; preds = %52, %23, %18
  call void @llvm.lifetime.end.p0(i64 4, ptr %11) #13
  call void @llvm.lifetime.end.p0(i64 4, ptr %10) #13
  call void @llvm.lifetime.end.p0(i64 4, ptr %9) #13
  call void @llvm.lifetime.end.p0(i64 4, ptr %8) #13
  %61 = load i32, ptr %4, align 4
  ret i32 %61
}