; Function Attrs: mustprogress nofree norecurse nosync nounwind willreturn memory(read, argmem: readwrite, inaccessiblemem: none) uwtable
define internal fastcc i32 @mpeg_decode_motion(ptr noundef captures(none) %0, i32 noundef %1, i32 noundef %2) unnamed_addr #8 {
  %4 = getelementptr inbounds nuw i8, ptr %0, i64 4160
  %5 = getelementptr inbounds nuw i8, ptr %0, i64 4176
  %6 = load i32, ptr %5, align 8, !tbaa !109
  %7 = load ptr, ptr %4, align 8, !tbaa !105
  %8 = lshr i32 %6, 3
  %9 = zext nneg i32 %8 to i64
  %10 = getelementptr inbounds nuw i8, ptr %7, i64 %9
  %11 = load i32, ptr %10, align 1, !tbaa !58
  %12 = tail call i32 @llvm.bswap.i32(i32 %11)
  %13 = and i32 %6, 7
  %14 = shl i32 %12, %13
  %15 = lshr i32 %14, 24
  %16 = zext nneg i32 %15 to i64
  %17 = getelementptr inbounds nuw %struct.VLCElem, ptr @ff_mv_vlc, i64 %16
  %18 = load i16, ptr %17, align 2, !tbaa !58
  %19 = sext i16 %18 to i32
  %20 = getelementptr inbounds nuw i8, ptr %17, i64 2
  %21 = load i16, ptr %20, align 2, !tbaa !58
  %22 = sext i16 %21 to i32
  %23 = icmp slt i16 %21, 0
  br i1 %23, label %24, label %get_vlc2.exit

24:                                               ; preds = %3
  %25 = add i32 %6, 8
  %26 = lshr i32 %25, 3
  %27 = zext nneg i32 %26 to i64
  %28 = getelementptr inbounds nuw i8, ptr %7, i64 %27
  %29 = load i32, ptr %28, align 1, !tbaa !58
  %30 = tail call i32 @llvm.bswap.i32(i32 %29)
  %31 = shl i32 %30, %13
  %32 = add nsw i32 %22, 32
  %33 = lshr i32 %31, %32
  %34 = add i32 %33, %19
  %35 = zext i32 %34 to i64
  %36 = getelementptr inbounds nuw %struct.VLCElem, ptr @ff_mv_vlc, i64 %35
  %37 = load i16, ptr %36, align 2, !tbaa !58
  %38 = sext i16 %37 to i32
  %39 = getelementptr inbounds nuw i8, ptr %36, i64 2
  %40 = load i16, ptr %39, align 2, !tbaa !58
  %41 = sext i16 %40 to i32
  br label %get_vlc2.exit

get_vlc2.exit:                                    ; preds = %3, %24
  %.051.i = phi i32 [ %38, %24 ], [ %19, %3 ]
  %.050.i = phi i32 [ %25, %24 ], [ %6, %3 ]
  %.0.i = phi i32 [ %41, %24 ], [ %22, %3 ]
  %42 = add i32 %.0.i, %.050.i
  store i32 %42, ptr %5, align 8, !tbaa !109
  %43 = icmp eq i32 %.051.i, 0
  br i1 %43, label %78, label %44

44:                                               ; preds = %get_vlc2.exit
  %45 = icmp slt i32 %.051.i, 0
  br i1 %45, label %78, label %46

46:                                               ; preds = %44
  %47 = lshr i32 %42, 3
  %48 = zext nneg i32 %47 to i64
  %49 = getelementptr inbounds nuw i8, ptr %7, i64 %48
  %50 = load i8, ptr %49, align 1, !tbaa !58
  %51 = and i32 %42, 7
  %52 = zext i8 %50 to i32
  %53 = add i32 %42, 1
  store i32 %53, ptr %5, align 8, !tbaa !109
  %54 = add nsw i32 %1, -1
  %.not = icmp eq i32 %54, 0
  br i1 %.not, label %70, label %55

55:                                               ; preds = %46
  %56 = add nsw i32 %.051.i, -1
  %57 = shl i32 %56, %54
  %58 = lshr i32 %53, 3
  %59 = zext nneg i32 %58 to i64
  %60 = getelementptr inbounds nuw i8, ptr %7, i64 %59
  %61 = load i32, ptr %60, align 1, !tbaa !58
  %62 = tail call i32 @llvm.bswap.i32(i32 %61)
  %63 = and i32 %53, 7
  %64 = shl i32 %62, %63
  %65 = sub nsw i32 33, %1
  %66 = lshr i32 %64, %65
  %67 = add i32 %42, %1
  store i32 %67, ptr %5, align 8, !tbaa !109
  %68 = or i32 %66, %57
  %69 = add nsw i32 %68, 1
  br label %70

70:                                               ; preds = %55, %46
  %.020 = phi i32 [ %69, %55 ], [ %.051.i, %46 ]
  %71 = lshr exact i32 128, %51
  %72 = and i32 %71, %52
  %.not23 = icmp eq i32 %72, 0
  %73 = sub nsw i32 0, %.020
  %spec.select = select i1 %.not23, i32 %.020, i32 %73
  %74 = add nsw i32 %spec.select, %2
  %75 = sub i32 28, %1
  %76 = shl i32 %74, %75
  %77 = ashr exact i32 %76, %75
  br label %78

78:                                               ; preds = %44, %get_vlc2.exit, %70
  %.0 = phi i32 [ %77, %70 ], [ %2, %get_vlc2.exit ], [ 65535, %44 ]
  ret i32 %.0
}